target datalayout = "e-m:e-p270:32:32-p271:32:32-p272:64:64-i64:64-i128:128-f80:128-n8:16:32:64-S128"
target triple = "x86_64-pc-linux-gnu"

%"struct.std::_Rb_tree_header" = type { %"struct.std::_Rb_tree_node_base", i64 }
%"struct.std::_Rb_tree_node_base" = type { i32, ptr, ptr, ptr }
%"class.Imf_3_4::Header" = type <{ %"class.std::map", i8, [7 x i8] }>
%"class.std::map" = type { %"class.std::_Rb_tree" }
%"class.std::_Rb_tree" = type { %"struct.std::_Rb_tree<Imf_3_4::Name, std::pair<const Imf_3_4::Name, Imf_3_4::Attribute *>, std::_Select1st<std::pair<const Imf_3_4::Name, Imf_3_4::Attribute *>>, std::less<Imf_3_4::Name>>::_Rb_tree_impl" }
%"struct.std::_Rb_tree<Imf_3_4::Name, std::pair<const Imf_3_4::Name, Imf_3_4::Attribute *>, std::_Select1st<std::pair<const Imf_3_4::Name, Imf_3_4::Attribute *>>, std::less<Imf_3_4::Name>>::_Rb_tree_impl" = type { [8 x i8], %"struct.std::_Rb_tree_header" }
%"class.Imath_3_2::Vec2.32" = type { float, float }
%"struct.Imf_3_4::Channel" = type <{ i32, i32, i32, i8, [3 x i8] }>

@.str.15 = private unnamed_addr constant [2 x i8] c"Z\00", align 1
@.str.18 = private unnamed_addr constant [2 x i8] c"G\00", align 1

; Function Attrs: inlinehint mustprogress nounwind uwtable
define linkonce_odr dso_local void @_ZN9Imath_3_24Vec2IfEC2Eff(ptr noundef nonnull align 4 dereferenceable(8) %0, float noundef %1, float noundef %2) unnamed_addr #10 comdat align 2 {
  %4 = alloca ptr, align 8
  %5 = alloca float, align 4
  %6 = alloca float, align 4
  store ptr %0, ptr %4, align 8, !tbaa !154
  store float %1, ptr %5, align 4, !tbaa !46
  store float %2, ptr %6, align 4, !tbaa !46
  %7 = load ptr, ptr %4, align 8
  %8 = getelementptr inbounds nuw %"class.Imath_3_2::Vec2.32", ptr %7, i32 0, i32 0
  %9 = load float, ptr %5, align 4, !tbaa !46
  store float %9, ptr %8, align 4, !tbaa !156
  %10 = getelementptr inbounds nuw %"class.Imath_3_2::Vec2.32", ptr %7, i32 0, i32 1
  %11 = load float, ptr %6, align 4, !tbaa !46
  store float %11, ptr %10, align 4, !tbaa !158
  ret void
}

; Function Attrs: mustprogress uwtable
define dso_local void @_Z11compressionv() #6 personality ptr @__gxx_personality_v0 {
  %1 = alloca i32, align 4
  %2 = alloca i32, align 4
  %3 = alloca %"class.Imf_3_4::Header", align 8
  %4 = alloca %"class.Imath_3_2::Vec2.32", align 4
  %5 = alloca ptr, align 8
  %6 = alloca i32, align 4
  %7 = alloca %"struct.Imf_3_4::Channel", align 4
  %8 = alloca %"struct.Imf_3_4::Channel", align 4
  call void @llvm.lifetime.start.p0(i64 4, ptr %1) #3
  store i32 1, ptr %1, align 4, !tbaa !13
  call void @llvm.lifetime.start.p0(i64 4, ptr %2) #3
  store i32 1, ptr %2, align 4, !tbaa !13
  call void @llvm.lifetime.start.p0(i64 56, ptr %3) #3
  %9 = load i32, ptr %1, align 4, !tbaa !13
  %10 = load i32, ptr %2, align 4, !tbaa !13
  call void @llvm.lifetime.start.p0(i64 8, ptr %4) #3
  call void @_ZN9Imath_3_24Vec2IfEC2Eff(ptr noundef nonnull align 4 dereferenceable(8) %4, float noundef 0.000000e+00, float noundef 0.000000e+00) #3
  call void @_ZN7Imf_3_46HeaderC1EiifRKN9Imath_3_24Vec2IfEEfNS_9LineOrderENS_11CompressionE(ptr noundef nonnull align 8 dereferenceable(49) %3, i32 noundef %9, i32 noundef %10, float noundef 1.000000e+00, ptr noundef nonnull align 4 dereferenceable(8) %4, float noundef 1.000000e+00, i32 noundef 0, i32 noundef 3)
  call void @llvm.lifetime.end.p0(i64 8, ptr %4) #3
  %11 = invoke noundef nonnull align 8 dereferenceable(48) ptr @_ZN7Imf_3_46Header8channelsEv(ptr noundef nonnull align 8 dereferenceable(49) %3)
          to label %12 unwind label %25

12:                                               ; preds = %0
  call void @llvm.lifetime.start.p0(i64 16, ptr %7) #3
  invoke void @_ZN7Imf_3_47ChannelC1ENS_9PixelTypeEiib(ptr noundef nonnull align 4 dereferenceable(13) %7, i32 noundef 1, i32 noundef 1, i32 noundef 1, i1 noundef zeroext false)
          to label %13 unwind label %29

13:                                               ; preds = %12
  invoke void @_ZN7Imf_3_411ChannelList6insertEPKcRKNS_7ChannelE(ptr noundef nonnull align 8 dereferenceable(48) %11, ptr noundef @.str.18, ptr noundef nonnull align 4 dereferenceable(13) %7)
          to label %14 unwind label %29

14:                                               ; preds = %13
  call void @llvm.lifetime.end.p0(i64 16, ptr %7) #3
  %15 = invoke noundef nonnull align 8 dereferenceable(48) ptr @_ZN7Imf_3_46Header8channelsEv(ptr noundef nonnull align 8 dereferenceable(49) %3)
          to label %16 unwind label %25

16:                                               ; preds = %14
  call void @llvm.lifetime.start.p0(i64 16, ptr %8) #3
  invoke void @_ZN7Imf_3_47ChannelC1ENS_9PixelTypeEiib(ptr noundef nonnull align 4 dereferenceable(13) %8, i32 noundef 2, i32 noundef 1, i32 noundef 1, i1 noundef zeroext false)
          to label %17 unwind label %33

17:                                               ; preds = %16
  invoke void @_ZN7Imf_3_411ChannelList6insertEPKcRKNS_7ChannelE(ptr noundef nonnull align 8 dereferenceable(48) %15, ptr noundef @.str.15, ptr noundef nonnull align 4 dereferenceable(13) %8)
          to label %18 unwind label %33

18:                                               ; preds = %17
  call void @llvm.lifetime.end.p0(i64 16, ptr %8) #3
  %19 = invoke noundef nonnull align 4 dereferenceable(4) ptr @_ZN7Imf_3_46Header11compressionEv(ptr noundef nonnull align 8 dereferenceable(49) %3)
          to label %20 unwind label %25

20:                                               ; preds = %18
  store i32 3, ptr %19, align 4, !tbaa !148
  %21 = invoke noundef nonnull align 4 dereferenceable(4) ptr @_ZN7Imf_3_46Header19zipCompressionLevelEv(ptr noundef nonnull align 8 dereferenceable(49) %3)
          to label %22 unwind label %25

22:                                               ; preds = %20
  store i32 6, ptr %21, align 4, !tbaa !13
  invoke void @_ZN7Imf_3_429setDefaultZipCompressionLevelEi(i32 noundef 6)
          to label %23 unwind label %25

23:                                               ; preds = %22
  invoke void @_ZN7Imf_3_429setDefaultDwaCompressionLevelEf(float noundef 4.500000e+01)
          to label %24 unwind label %25

24:                                               ; preds = %23
  call void @_ZN7Imf_3_46HeaderD1Ev(ptr noundef nonnull align 8 dereferenceable(49) %3) #3
  call void @llvm.lifetime.end.p0(i64 56, ptr %3) #3
  call void @llvm.lifetime.end.p0(i64 4, ptr %2) #3
  call void @llvm.lifetime.end.p0(i64 4, ptr %1) #3
  ret void

25:                                               ; preds = %23, %22, %20, %18, %14, %0
  %26 = landingpad { ptr, i32 }
          cleanup
  %27 = extractvalue { ptr, i32 } %26, 0
  store ptr %27, ptr %5, align 8
  %28 = extractvalue { ptr, i32 } %26, 1
  store i32 %28, ptr %6, align 4
  br label %37

29:                                               ; preds = %13, %12
  %30 = landingpad { ptr, i32 }
          cleanup
  %31 = extractvalue { ptr, i32 } %30, 0
  store ptr %31, ptr %5, align 8
  %32 = extractvalue { ptr, i32 } %30, 1
  store i32 %32, ptr %6, align 4
  call void @llvm.lifetime.end.p0(i64 16, ptr %7) #3
  br label %37

33:                                               ; preds = %17, %16
  %34 = landingpad { ptr, i32 }
          cleanup
  %35 = extractvalue { ptr, i32 } %34, 0
  store ptr %35, ptr %5, align 8
  %36 = extractvalue { ptr, i32 } %34, 1
  store i32 %36, ptr %6, align 4
  call void @llvm.lifetime.end.p0(i64 16, ptr %8) #3
  br label %37

37:                                               ; preds = %33, %29, %25
  call void @_ZN7Imf_3_46HeaderD1Ev(ptr noundef nonnull align 8 dereferenceable(49) %3) #3
  call void @llvm.lifetime.end.p0(i64 56, ptr %3) #3
  call void @llvm.lifetime.end.p0(i64 4, ptr %2) #3
  call void @llvm.lifetime.end.p0(i64 4, ptr %1) #3
  br label %38

38:                                               ; preds = %37
  %39 = load ptr, ptr %5, align 8
  %40 = load i32, ptr %6, align 4
  %41 = insertvalue { ptr, i32 } poison, ptr %39, 0
  %42 = insertvalue { ptr, i32 } %41, i32 %40, 1
  resume { ptr, i32 } %42
}