; Function Attrs: mustprogress uwtable
define dso_local void @_Z11compressionv() local_unnamed_addr #8 personality ptr @__gxx_personality_v0 {
  %1 = alloca %"class.Imf_3_4::Header", align 8
  %2 = alloca %"class.Imath_3_2::Vec2.32", align 4
  %3 = alloca %"struct.Imf_3_4::Channel", align 4
  %4 = alloca %"struct.Imf_3_4::Channel", align 4
  call void @llvm.lifetime.start.p0(i64 56, ptr nonnull %1) #36
  call void @llvm.lifetime.start.p0(i64 8, ptr nonnull %2) #36
  store float 0.000000e+00, ptr %2, align 4, !tbaa !157
  %5 = getelementptr inbounds nuw i8, ptr %2, i64 4
  store float 0.000000e+00, ptr %5, align 4, !tbaa !159
  call void @_ZN7Imf_3_46HeaderC1EiifRKN9Imath_3_24Vec2IfEEfNS_9LineOrderENS_11CompressionE(ptr noundef nonnull align 8 dereferenceable(49) %1, i32 noundef 1, i32 noundef 1, float noundef 1.000000e+00, ptr noundef nonnull align 4 dereferenceable(8) %2, float noundef 1.000000e+00, i32 noundef 0, i32 noundef 3)
  call void @llvm.lifetime.end.p0(i64 8, ptr nonnull %2) #36
  %6 = invoke noundef nonnull align 8 dereferenceable(48) ptr @_ZN7Imf_3_46Header8channelsEv(ptr noundef nonnull align 8 dereferenceable(49) %1)
          to label %7 unwind label %20

7:                                                ; preds = %0
  call void @llvm.lifetime.start.p0(i64 16, ptr nonnull %3) #36
  invoke void @_ZN7Imf_3_47ChannelC1ENS_9PixelTypeEiib(ptr noundef nonnull align 4 dereferenceable(13) %3, i32 noundef 1, i32 noundef 1, i32 noundef 1, i1 noundef zeroext false)
          to label %8 unwind label %22

8:                                                ; preds = %7
  invoke void @_ZN7Imf_3_411ChannelList6insertEPKcRKNS_7ChannelE(ptr noundef nonnull align 8 dereferenceable(48) %6, ptr noundef nonnull @.str.18, ptr noundef nonnull align 4 dereferenceable(13) %3)
          to label %9 unwind label %22

9:                                                ; preds = %8
  call void @llvm.lifetime.end.p0(i64 16, ptr nonnull %3) #36
  %10 = invoke noundef nonnull align 8 dereferenceable(48) ptr @_ZN7Imf_3_46Header8channelsEv(ptr noundef nonnull align 8 dereferenceable(49) %1)
          to label %11 unwind label %20

11:                                               ; preds = %9
  call void @llvm.lifetime.start.p0(i64 16, ptr nonnull %4) #36
  invoke void @_ZN7Imf_3_47ChannelC1ENS_9PixelTypeEiib(ptr noundef nonnull align 4 dereferenceable(13) %4, i32 noundef 2, i32 noundef 1, i32 noundef 1, i1 noundef zeroext false)
          to label %12 unwind label %24

12:                                               ; preds = %11
  invoke void @_ZN7Imf_3_411ChannelList6insertEPKcRKNS_7ChannelE(ptr noundef nonnull align 8 dereferenceable(48) %10, ptr noundef nonnull @.str.15, ptr noundef nonnull align 4 dereferenceable(13) %4)
          to label %13 unwind label %24

13:                                               ; preds = %12
  call void @llvm.lifetime.end.p0(i64 16, ptr nonnull %4) #36
  %14 = invoke noundef nonnull align 4 dereferenceable(4) ptr @_ZN7Imf_3_46Header11compressionEv(ptr noundef nonnull align 8 dereferenceable(49) %1)
          to label %15 unwind label %20

15:                                               ; preds = %13
  store i32 3, ptr %14, align 4, !tbaa !160
  %16 = invoke noundef nonnull align 4 dereferenceable(4) ptr @_ZN7Imf_3_46Header19zipCompressionLevelEv(ptr noundef nonnull align 8 dereferenceable(49) %1)
          to label %17 unwind label %20

17:                                               ; preds = %15
  store i32 6, ptr %16, align 4, !tbaa !59
  invoke void @_ZN7Imf_3_429setDefaultZipCompressionLevelEi(i32 noundef 6)
          to label %18 unwind label %20

18:                                               ; preds = %17
  invoke void @_ZN7Imf_3_429setDefaultDwaCompressionLevelEf(float noundef 4.500000e+01)
          to label %19 unwind label %20

19:                                               ; preds = %18
  call void @_ZN7Imf_3_46HeaderD1Ev(ptr noundef nonnull align 8 dereferenceable(49) %1) #36
  call void @llvm.lifetime.end.p0(i64 56, ptr nonnull %1) #36
  ret void

20:                                               ; preds = %18, %17, %15, %13, %9, %0
  %21 = landingpad { ptr, i32 }
          cleanup
  br label %26

22:                                               ; preds = %8, %7
  %23 = landingpad { ptr, i32 }
          cleanup
  call void @llvm.lifetime.end.p0(i64 16, ptr nonnull %3) #36
  br label %26

24:                                               ; preds = %12, %11
  %25 = landingpad { ptr, i32 }
          cleanup
  call void @llvm.lifetime.end.p0(i64 16, ptr nonnull %4) #36
  br label %26

26:                                               ; preds = %24, %22, %20
  %.pn = phi { ptr, i32 } [ %21, %20 ], [ %25, %24 ], [ %23, %22 ]
  call void @_ZN7Imf_3_46HeaderD1Ev(ptr noundef nonnull align 8 dereferenceable(49) %1) #36
  call void @llvm.lifetime.end.p0(i64 56, ptr nonnull %1) #36
  resume { ptr, i32 } %.pn
}